; Function Attrs: nounwind uwtable
define i32 @yr_lex_parse_rules_file(ptr noundef %0, ptr noundef %1) local_unnamed_addr #0 {
  store i32 0, ptr %1, align 8
  %3 = getelementptr inbounds i8, ptr %1, i64 24
  %4 = call i32 @_setjmp(ptr noundef nonnull %3) #35
  %.not = icmp eq i32 %4, 0
  br i1 %.not, label %5, label %13

5:                                                ; preds = %2
  %calloc.i = call dereferenceable_or_null(152) ptr @calloc(i64 1, i64 152)
  %6 = icmp eq ptr %calloc.i, null
  br i1 %6, label %7, label %yylex_init.exit

7:                                                ; preds = %5
  %8 = call ptr @__errno_location() #33
  store i32 12, ptr %8, align 4
  br label %yylex_init.exit

yylex_init.exit:                                  ; preds = %5, %7
  %9 = getelementptr inbounds i8, ptr %calloc.i, i64 124
  store i32 1, ptr %9, align 4
  %10 = getelementptr inbounds i8, ptr %calloc.i, i64 8
  store ptr %0, ptr %10, align 8
  store ptr %1, ptr %calloc.i, align 8
  %11 = call i32 @yara_yyparse(ptr noundef nonnull %calloc.i, ptr noundef nonnull %1) #30
  %12 = call i32 @yylex_destroy(ptr noundef nonnull %calloc.i)
  br label %13

13:                                               ; preds = %2, %yylex_init.exit
  %.0 = load i32, ptr %1, align 8
  ret i32 %.0
}